target datalayout = "e-m:e-p270:32:32-p271:32:32-p272:64:64-i64:64-i128:128-f80:128-n8:16:32:64-S128"
target triple = "x86_64-pc-linux-gnu"

%struct.lua_State = type { ptr, i8, i8, i8, i8, i16, %union.StkIdRel, ptr, ptr, %union.StkIdRel, %union.StkIdRel, ptr, %union.StkIdRel, ptr, ptr, ptr, %struct.CallInfo, ptr, i64, i32, i32, i32, i32, i32, %struct.anon.2 }
%union.StkIdRel = type { ptr }
%struct.CallInfo = type { %union.StkIdRel, %union.StkIdRel, ptr, ptr, %union.anon, %union.anon.1, i32 }
%union.anon = type { %struct.anon.0 }
%struct.anon.0 = type { ptr, i64, i64 }
%union.anon.1 = type { i32 }
%struct.anon.2 = type { i32, i32 }
%struct.anon = type { ptr, i32, i32 }

; Function Attrs: nounwind uwtable
define internal void @settraps(ptr noundef %0) #0 {
  %2 = alloca ptr, align 8
  store ptr %0, ptr %2, align 8, !tbaa !47
  br label %3

3:                                                ; preds = %17, %1
  %4 = load ptr, ptr %2, align 8, !tbaa !47
  %5 = icmp ne ptr %4, null
  br i1 %5, label %6, label %21

6:                                                ; preds = %3
  %7 = load ptr, ptr %2, align 8, !tbaa !47
  %8 = getelementptr inbounds nuw %struct.CallInfo, ptr %7, i32 0, i32 6
  %9 = load i32, ptr %8, align 4, !tbaa !48
  %10 = and i32 %9, 32768
  %11 = icmp ne i32 %10, 0
  br i1 %11, label %16, label %12

12:                                               ; preds = %6
  %13 = load ptr, ptr %2, align 8, !tbaa !47
  %14 = getelementptr inbounds nuw %struct.CallInfo, ptr %13, i32 0, i32 4
  %15 = getelementptr inbounds nuw %struct.anon, ptr %14, i32 0, i32 1
  store volatile i32 1, ptr %15, align 8, !tbaa !22
  br label %16

16:                                               ; preds = %12, %6
  br label %17

17:                                               ; preds = %16
  %18 = load ptr, ptr %2, align 8, !tbaa !47
  %19 = getelementptr inbounds nuw %struct.CallInfo, ptr %18, i32 0, i32 2
  %20 = load ptr, ptr %19, align 8, !tbaa !49
  store ptr %20, ptr %2, align 8, !tbaa !47
  br label %3

21:                                               ; preds = %3
  ret void
}

; Function Attrs: nounwind uwtable
define dso_local void @lua_sethook(ptr noundef %0, ptr noundef %1, i32 noundef %2, i32 noundef %3) #0 {
  %5 = alloca ptr, align 8
  %6 = alloca ptr, align 8
  %7 = alloca i32, align 4
  %8 = alloca i32, align 4
  store ptr %0, ptr %5, align 8, !tbaa !30
  store ptr %1, ptr %6, align 8, !tbaa !32
  store i32 %2, ptr %7, align 4, !tbaa !9
  store i32 %3, ptr %8, align 4, !tbaa !9
  %9 = load ptr, ptr %6, align 8, !tbaa !32
  %10 = icmp eq ptr %9, null
  br i1 %10, label %14, label %11

11:                                               ; preds = %4
  %12 = load i32, ptr %7, align 4, !tbaa !9
  %13 = icmp eq i32 %12, 0
  br i1 %13, label %14, label %15

14:                                               ; preds = %11, %4
  store i32 0, ptr %7, align 4, !tbaa !9
  store ptr null, ptr %6, align 8, !tbaa !32
  br label %15

15:                                               ; preds = %14, %11
  %16 = load ptr, ptr %6, align 8, !tbaa !32
  %17 = load ptr, ptr %5, align 8, !tbaa !30
  %18 = getelementptr inbounds nuw %struct.lua_State, ptr %17, i32 0, i32 17
  store volatile ptr %16, ptr %18, align 8, !tbaa !33
  %19 = load i32, ptr %8, align 4, !tbaa !9
  %20 = load ptr, ptr %5, align 8, !tbaa !30
  %21 = getelementptr inbounds nuw %struct.lua_State, ptr %20, i32 0, i32 21
  store i32 %19, ptr %21, align 8, !tbaa !43
  %22 = load ptr, ptr %5, align 8, !tbaa !30
  %23 = getelementptr inbounds nuw %struct.lua_State, ptr %22, i32 0, i32 21
  %24 = load i32, ptr %23, align 8, !tbaa !43
  %25 = load ptr, ptr %5, align 8, !tbaa !30
  %26 = getelementptr inbounds nuw %struct.lua_State, ptr %25, i32 0, i32 22
  store i32 %24, ptr %26, align 4, !tbaa !44
  %27 = load i32, ptr %7, align 4, !tbaa !9
  %28 = trunc i32 %27 to i8
  %29 = zext i8 %28 to i32
  %30 = load ptr, ptr %5, align 8, !tbaa !30
  %31 = getelementptr inbounds nuw %struct.lua_State, ptr %30, i32 0, i32 23
  store volatile i32 %29, ptr %31, align 8, !tbaa !45
  %32 = load i32, ptr %7, align 4, !tbaa !9
  %33 = icmp ne i32 %32, 0
  br i1 %33, label %34, label %38

34:                                               ; preds = %15
  %35 = load ptr, ptr %5, align 8, !tbaa !30
  %36 = getelementptr inbounds nuw %struct.lua_State, ptr %35, i32 0, i32 8
  %37 = load ptr, ptr %36, align 8, !tbaa !46
  call void @settraps(ptr noundef %37)
  br label %38

38:                                               ; preds = %34, %15
  ret void
}