; Function Attrs: nofree norecurse nounwind uwtable
define dso_local void @lua_sethook(ptr noundef %0, ptr noundef %1, i32 noundef %2, i32 noundef %3) local_unnamed_addr #2 {
  %5 = icmp eq ptr %1, null
  %6 = icmp eq i32 %2, 0
  %spec.select = select i1 %5, i32 0, i32 %2
  %spec.select15 = select i1 %6, ptr null, ptr %1
  %7 = getelementptr inbounds nuw i8, ptr %0, i64 160
  store volatile ptr %spec.select15, ptr %7, align 8, !tbaa !25
  %8 = getelementptr inbounds nuw i8, ptr %0, i64 184
  store i32 %3, ptr %8, align 8, !tbaa !36
  %9 = getelementptr inbounds nuw i8, ptr %0, i64 188
  store i32 %3, ptr %9, align 4, !tbaa !37
  %10 = and i32 %spec.select, 255
  %11 = getelementptr inbounds nuw i8, ptr %0, i64 192
  store volatile i32 %10, ptr %11, align 8, !tbaa !38
  %.not = icmp eq i32 %spec.select, 0
  br i1 %.not, label %settraps.exit, label %12

12:                                               ; preds = %4
  %13 = getelementptr inbounds nuw i8, ptr %0, i64 32
  %14 = load ptr, ptr %13, align 8, !tbaa !39
  %.not5.i = icmp eq ptr %14, null
  br i1 %.not5.i, label %settraps.exit, label %.lr.ph.i

.lr.ph.i:                                         ; preds = %12, %20
  %.06.i = phi ptr [ %22, %20 ], [ %14, %12 ]
  %15 = getelementptr inbounds nuw i8, ptr %.06.i, i64 60
  %16 = load i32, ptr %15, align 4, !tbaa !40
  %17 = and i32 %16, 32768
  %.not4.i = icmp eq i32 %17, 0
  br i1 %.not4.i, label %18, label %20

18:                                               ; preds = %.lr.ph.i
  %19 = getelementptr inbounds nuw i8, ptr %.06.i, i64 40
  store volatile i32 1, ptr %19, align 8, !tbaa !24
  br label %20

20:                                               ; preds = %18, %.lr.ph.i
  %21 = getelementptr inbounds nuw i8, ptr %.06.i, i64 16
  %22 = load ptr, ptr %21, align 8, !tbaa !41
  %.not.i = icmp eq ptr %22, null
  br i1 %.not.i, label %settraps.exit, label %.lr.ph.i

settraps.exit:                                    ; preds = %20, %12, %4
  ret void
}